; Function Attrs: nounwind uwtable
define hidden void @Curl_http_resp_free(ptr noundef %0) local_unnamed_addr #0 {
  %.not = icmp eq ptr %0, null
  br i1 %.not, label %13, label %2

2:                                                ; preds = %1
  %3 = load ptr, ptr @Curl_cfree, align 8, !tbaa !88
  %4 = getelementptr inbounds nuw i8, ptr %0, i64 8
  %5 = load ptr, ptr %4, align 8, !tbaa !261
  tail call void %3(ptr noundef %5) #11
  %6 = getelementptr inbounds nuw i8, ptr %0, i64 16
  tail call void @Curl_dynhds_free(ptr noundef nonnull %6) #11
  %7 = getelementptr inbounds nuw i8, ptr %0, i64 72
  tail call void @Curl_dynhds_free(ptr noundef nonnull %7) #11
  %8 = getelementptr inbounds nuw i8, ptr %0, i64 128
  %9 = load ptr, ptr %8, align 8, !tbaa !263
  %.not8 = icmp eq ptr %9, null
  br i1 %.not8, label %11, label %10

10:                                               ; preds = %2
  tail call void @Curl_http_resp_free(ptr noundef nonnull %9)
  br label %11

11:                                               ; preds = %10, %2
  %12 = load ptr, ptr @Curl_cfree, align 8, !tbaa !88
  tail call void %12(ptr noundef nonnull %0) #11
  br label %13

13:                                               ; preds = %11, %1
  ret void
}